target datalayout = "e-m:e-p270:32:32-p271:32:32-p272:64:64-i64:64-i128:128-f80:128-n8:16:32:64-S128"
target triple = "x86_64-pc-linux-gnu"

%struct.AVComplexInt32 = type { i32, i32 }

; Function Attrs: nounwind uwtable
define internal void @ff_tx_fft2_ns_int32_c(ptr noundef %0, ptr noundef %1, ptr noundef %2, i64 noundef %3) #4 {
  %5 = alloca ptr, align 8
  %6 = alloca ptr, align 8
  %7 = alloca ptr, align 8
  %8 = alloca i64, align 8
  %9 = alloca ptr, align 8
  %10 = alloca ptr, align 8
  %11 = alloca %struct.AVComplexInt32, align 4
  store ptr %0, ptr %5, align 8, !tbaa !17
  store ptr %1, ptr %6, align 8, !tbaa !8
  store ptr %2, ptr %7, align 8, !tbaa !8
  store i64 %3, ptr %8, align 8, !tbaa !30
  call void @llvm.lifetime.start.p0(i64 8, ptr %9) #10
  %12 = load ptr, ptr %7, align 8, !tbaa !8
  store ptr %12, ptr %9, align 8, !tbaa !57
  call void @llvm.lifetime.start.p0(i64 8, ptr %10) #10
  %13 = load ptr, ptr %6, align 8, !tbaa !8
  store ptr %13, ptr %10, align 8, !tbaa !57
  call void @llvm.lifetime.start.p0(i64 8, ptr %11) #10
  br label %14

14:                                               ; preds = %4
  %15 = load ptr, ptr %9, align 8, !tbaa !57
  %16 = getelementptr inbounds %struct.AVComplexInt32, ptr %15, i64 0
  %17 = getelementptr inbounds nuw %struct.AVComplexInt32, ptr %16, i32 0, i32 0
  %18 = load i32, ptr %17, align 4, !tbaa !32
  %19 = load ptr, ptr %9, align 8, !tbaa !57
  %20 = getelementptr inbounds %struct.AVComplexInt32, ptr %19, i64 1
  %21 = getelementptr inbounds nuw %struct.AVComplexInt32, ptr %20, i32 0, i32 0
  %22 = load i32, ptr %21, align 4, !tbaa !32
  %23 = sub i32 %18, %22
  %24 = getelementptr inbounds nuw %struct.AVComplexInt32, ptr %11, i32 0, i32 0
  store i32 %23, ptr %24, align 4, !tbaa !32
  %25 = load ptr, ptr %9, align 8, !tbaa !57
  %26 = getelementptr inbounds %struct.AVComplexInt32, ptr %25, i64 0
  %27 = getelementptr inbounds nuw %struct.AVComplexInt32, ptr %26, i32 0, i32 0
  %28 = load i32, ptr %27, align 4, !tbaa !32
  %29 = load ptr, ptr %9, align 8, !tbaa !57
  %30 = getelementptr inbounds %struct.AVComplexInt32, ptr %29, i64 1
  %31 = getelementptr inbounds nuw %struct.AVComplexInt32, ptr %30, i32 0, i32 0
  %32 = load i32, ptr %31, align 4, !tbaa !32
  %33 = add i32 %28, %32
  %34 = load ptr, ptr %10, align 8, !tbaa !57
  %35 = getelementptr inbounds %struct.AVComplexInt32, ptr %34, i64 0
  %36 = getelementptr inbounds nuw %struct.AVComplexInt32, ptr %35, i32 0, i32 0
  store i32 %33, ptr %36, align 4, !tbaa !32
  br label %37

37:                                               ; preds = %14
  br label %38

38:                                               ; preds = %37
  br label %39

39:                                               ; preds = %38
  %40 = load ptr, ptr %9, align 8, !tbaa !57
  %41 = getelementptr inbounds %struct.AVComplexInt32, ptr %40, i64 0
  %42 = getelementptr inbounds nuw %struct.AVComplexInt32, ptr %41, i32 0, i32 1
  %43 = load i32, ptr %42, align 4, !tbaa !34
  %44 = load ptr, ptr %9, align 8, !tbaa !57
  %45 = getelementptr inbounds %struct.AVComplexInt32, ptr %44, i64 1
  %46 = getelementptr inbounds nuw %struct.AVComplexInt32, ptr %45, i32 0, i32 1
  %47 = load i32, ptr %46, align 4, !tbaa !34
  %48 = sub i32 %43, %47
  %49 = getelementptr inbounds nuw %struct.AVComplexInt32, ptr %11, i32 0, i32 1
  store i32 %48, ptr %49, align 4, !tbaa !34
  %50 = load ptr, ptr %9, align 8, !tbaa !57
  %51 = getelementptr inbounds %struct.AVComplexInt32, ptr %50, i64 0
  %52 = getelementptr inbounds nuw %struct.AVComplexInt32, ptr %51, i32 0, i32 1
  %53 = load i32, ptr %52, align 4, !tbaa !34
  %54 = load ptr, ptr %9, align 8, !tbaa !57
  %55 = getelementptr inbounds %struct.AVComplexInt32, ptr %54, i64 1
  %56 = getelementptr inbounds nuw %struct.AVComplexInt32, ptr %55, i32 0, i32 1
  %57 = load i32, ptr %56, align 4, !tbaa !34
  %58 = add i32 %53, %57
  %59 = load ptr, ptr %10, align 8, !tbaa !57
  %60 = getelementptr inbounds %struct.AVComplexInt32, ptr %59, i64 0
  %61 = getelementptr inbounds nuw %struct.AVComplexInt32, ptr %60, i32 0, i32 1
  store i32 %58, ptr %61, align 4, !tbaa !34
  br label %62

62:                                               ; preds = %39
  br label %63

63:                                               ; preds = %62
  %64 = load ptr, ptr %10, align 8, !tbaa !57
  %65 = getelementptr inbounds %struct.AVComplexInt32, ptr %64, i64 1
  call void @llvm.memcpy.p0.p0.i64(ptr align 4 %65, ptr align 4 %11, i64 8, i1 false), !tbaa.struct !35
  call void @llvm.lifetime.end.p0(i64 8, ptr %11) #10
  call void @llvm.lifetime.end.p0(i64 8, ptr %10) #10
  call void @llvm.lifetime.end.p0(i64 8, ptr %9) #10
  ret void
}