; Function Attrs: mustprogress nofree norecurse nosync nounwind willreturn memory(argmem: readwrite) uwtable
define internal void @ff_tx_fft2_ns_int32_c(ptr readnone captures(none) %0, ptr noundef writeonly captures(none) initializes((0, 16)) %1, ptr noundef readonly captures(none) %2, i64 %3) #8 {
  %5 = load i32, ptr %2, align 4, !tbaa !48
  %6 = getelementptr inbounds nuw i8, ptr %2, i64 8
  %7 = load i32, ptr %6, align 4, !tbaa !48
  %8 = sub i32 %5, %7
  %9 = add i32 %7, %5
  store i32 %9, ptr %1, align 4, !tbaa !48
  %10 = getelementptr inbounds nuw i8, ptr %2, i64 4
  %11 = load i32, ptr %10, align 4, !tbaa !50
  %12 = getelementptr inbounds nuw i8, ptr %2, i64 12
  %13 = load i32, ptr %12, align 4, !tbaa !50
  %14 = sub i32 %11, %13
  %15 = add i32 %13, %11
  %16 = getelementptr inbounds nuw i8, ptr %1, i64 4
  store i32 %15, ptr %16, align 4, !tbaa !50
  %17 = getelementptr inbounds nuw i8, ptr %1, i64 8
  store i32 %8, ptr %17, align 4, !tbaa !10
  %.sroa.4.0..sroa_idx = getelementptr inbounds nuw i8, ptr %1, i64 12
  store i32 %14, ptr %.sroa.4.0..sroa_idx, align 4, !tbaa !10
  ret void
}